(lp0
(S'cppflags'
p1
ccopy_reg
_reconstructor
p2
(cino.utils
SpaceList
p3
c__builtin__
list
p4
(lp5
S'-mmcu=atmega328p'
p6
aS'-DF_CPU=16000000L'
p7
aS'-DARDUINO=105'
p8
aS'-I/usr/share/arduino/hardware/arduino/cores/arduino'
p9
aS'-ffunction-sections'
p10
aS'-fdata-sections'
p11
aS'-g'
p12
aS'-Os'
p13
aS'-w'
p14
aS'-I/usr/share/arduino/hardware/arduino/variants/standard'
p15
aS'-Ilib/jeelib'
p16
aS'-I/usr/share/arduino/hardware/arduino/cores/arduino'
p17
aS'-I/usr/share/arduino/hardware/arduino/cores/arduino/avr-libc'
p18
atp19
Rp20
tp21
a(S'cxx'
p22
S'/usr/share/arduino/hardware/tools/avr/bin/avr-g++'
p23
tp24
a(S'build_dir'
p25
S'.build/uno'
p26
tp27
a(S'avrdude'
p28
S'/usr/share/arduino/hardware/tools/avrdude'
p29
tp30
a(S'ar'
p31
S'/usr/share/arduino/hardware/tools/avr/bin/avr-ar'
p32
tp33
a(S'names'
p34
(dp35
S'cpp'
p36
S'%s.cpp'
p37
sS'obj'
p38
S'%s.o'
p39
sS'lib'
p40
S'lib%s.a'
p41
sS'deps'
p42
S'%s.d'
p43
stp44
a(S'ldflags'
p45
g2
(g3
g4
(lp46
g6
aS'-Wl,-Os'
p47
aS'-Wl,--gc-sections'
p48
atp49
Rp50
tp51
a(S'arduino_lib_version'
p52
g2
(cino.environment
Version
p53
c__builtin__
tuple
p54
(I1
I0
I5
tp55
tp56
Rp57
tp58
a(S'objcopy'
p59
S'/usr/share/arduino/hardware/tools/avr/bin/avr-objcopy'
p60
tp61
a(S'board_models'
p62
cino.environment
BoardModels
p63
((lp64
(lp65
S'uno'
p66
a(dp67
S'bootloader'
p68
(dp69
S'extended_fuses'
p70
S'0x05'
p71
sS'high_fuses'
p72
S'0xde'
p73
sS'low_fuses'
p74
S'0xff'
p75
sS'lock_bits'
p76
S'0x0F'
p77
sS'file'
p78
S'optiboot_atmega328.hex'
p79
sS'path'
p80
S'optiboot'
p81
sS'unlock_bits'
p82
S'0x3F'
p83
ssS'upload'
p84
(dp85
S'speed'
p86
S'115200'
p87
sS'maximum_size'
p88
S'32256'
p89
sS'protocol'
p90
S'arduino'
p91
ssS'build'
p92
(dp93
S'core'
p94
S'arduino'
p95
sS'mcu'
p96
S'atmega328p'
p97
sS'f_cpu'
p98
S'16000000L'
p99
sS'variant'
p100
S'standard'
p101
ssS'name'
p102
S'Arduino Uno'
p103
sS'_coredir'
p104
S'/usr/share/arduino/hardware/arduino'
p105
saa(lp106
S'atmega328'
p107
a(dp108
S'bootloader'
p109
(dp110
S'extended_fuses'
p111
S'0x05'
p112
sS'high_fuses'
p113
S'0xDA'
p114
sS'low_fuses'
p115
S'0xFF'
p116
sS'lock_bits'
p117
S'0x0F'
p118
sS'file'
p119
S'ATmegaBOOT_168_atmega328.hex'
p120
sS'path'
p121
S'atmega'
p122
sS'unlock_bits'
p123
S'0x3F'
p124
ssS'upload'
p125
(dp126
S'speed'
p127
S'57600'
p128
sS'maximum_size'
p129
S'30720'
p130
sS'protocol'
p131
S'arduino'
p132
ssS'build'
p133
(dp134
S'core'
p135
S'arduino'
p136
sS'mcu'
p137
S'atmega328p'
p138
sS'f_cpu'
p139
S'16000000L'
p140
sS'variant'
p141
S'standard'
p142
ssS'name'
p143
S'Arduino Duemilanove w/ ATmega328'
p144
sg104
S'/usr/share/arduino/hardware/arduino'
p145
saa(lp146
S'diecimila'
p147
a(dp148
S'bootloader'
p149
(dp150
S'extended_fuses'
p151
S'0x00'
p152
sS'high_fuses'
p153
S'0xdd'
p154
sS'low_fuses'
p155
S'0xff'
p156
sS'lock_bits'
p157
S'0x0F'
p158
sS'file'
p159
S'ATmegaBOOT_168_diecimila.hex'
p160
sS'path'
p161
S'atmega'
p162
sS'unlock_bits'
p163
S'0x3F'
p164
ssS'upload'
p165
(dp166
S'speed'
p167
S'19200'
p168
sS'maximum_size'
p169
S'14336'
p170
sS'protocol'
p171
S'arduino'
p172
ssS'build'
p173
(dp174
S'core'
p175
S'arduino'
p176
sS'mcu'
p177
S'atmega168'
p178
sS'f_cpu'
p179
S'16000000L'
p180
sS'variant'
p181
S'standard'
p182
ssS'name'
p183
S'Arduino Diecimila or Duemilanove w/ ATmega168'
p184
sg104
S'/usr/share/arduino/hardware/arduino'
p185
saa(lp186
S'nano328'
p187
a(dp188
S'bootloader'
p189
(dp190
S'extended_fuses'
p191
S'0x05'
p192
sS'high_fuses'
p193
S'0xDA'
p194
sS'low_fuses'
p195
S'0xFF'
p196
sS'lock_bits'
p197
S'0x0F'
p198
sS'file'
p199
S'ATmegaBOOT_168_atmega328.hex'
p200
sS'path'
p201
S'atmega'
p202
sS'unlock_bits'
p203
S'0x3F'
p204
ssS'upload'
p205
(dp206
S'speed'
p207
S'57600'
p208
sS'maximum_size'
p209
S'30720'
p210
sS'protocol'
p211
S'arduino'
p212
ssS'build'
p213
(dp214
S'core'
p215
S'arduino'
p216
sS'mcu'
p217
S'atmega328p'
p218
sS'f_cpu'
p219
S'16000000L'
p220
sS'variant'
p221
S'eightanaloginputs'
p222
ssS'name'
p223
S'Arduino Nano w/ ATmega328'
p224
sg104
S'/usr/share/arduino/hardware/arduino'
p225
saa(lp226
S'nano'
p227
a(dp228
S'bootloader'
p229
(dp230
S'extended_fuses'
p231
S'0x00'
p232
sS'high_fuses'
p233
S'0xdd'
p234
sS'low_fuses'
p235
S'0xff'
p236
sS'lock_bits'
p237
S'0x0F'
p238
sS'file'
p239
S'ATmegaBOOT_168_diecimila.hex'
p240
sS'path'
p241
S'atmega'
p242
sS'unlock_bits'
p243
S'0x3F'
p244
ssS'upload'
p245
(dp246
S'speed'
p247
S'19200'
p248
sS'maximum_size'
p249
S'14336'
p250
sS'protocol'
p251
S'arduino'
p252
ssS'build'
p253
(dp254
S'core'
p255
S'arduino'
p256
sS'mcu'
p257
S'atmega168'
p258
sS'f_cpu'
p259
S'16000000L'
p260
sS'variant'
p261
S'eightanaloginputs'
p262
ssS'name'
p263
S'Arduino Nano w/ ATmega168'
p264
sg104
S'/usr/share/arduino/hardware/arduino'
p265
saa(lp266
S'mega2560'
p267
a(dp268
S'bootloader'
p269
(dp270
S'extended_fuses'
p271
S'0xFD'
p272
sS'high_fuses'
p273
S'0xD8'
p274
sS'low_fuses'
p275
S'0xFF'
p276
sS'lock_bits'
p277
S'0x0F'
p278
sS'file'
p279
S'stk500boot_v2_mega2560.hex'
p280
sS'path'
p281
S'stk500v2'
p282
sS'unlock_bits'
p283
S'0x3F'
p284
ssS'upload'
p285
(dp286
S'speed'
p287
S'115200'
p288
sS'maximum_size'
p289
S'258048'
p290
sS'protocol'
p291
S'wiring'
p292
ssS'build'
p293
(dp294
S'core'
p295
S'arduino'
p296
sS'mcu'
p297
S'atmega2560'
p298
sS'f_cpu'
p299
S'16000000L'
p300
sS'variant'
p301
S'mega'
p302
ssS'name'
p303
S'Arduino Mega 2560 or Mega ADK'
p304
sg104
S'/usr/share/arduino/hardware/arduino'
p305
saa(lp306
S'mega'
p307
a(dp308
S'bootloader'
p309
(dp310
S'extended_fuses'
p311
S'0xF5'
p312
sS'high_fuses'
p313
S'0xDA'
p314
sS'low_fuses'
p315
S'0xFF'
p316
sS'lock_bits'
p317
S'0x0F'
p318
sS'file'
p319
S'ATmegaBOOT_168_atmega1280.hex'
p320
sS'path'
p321
S'atmega'
p322
sS'unlock_bits'
p323
S'0x3F'
p324
ssS'upload'
p325
(dp326
S'speed'
p327
S'57600'
p328
sS'maximum_size'
p329
S'126976'
p330
sS'protocol'
p331
S'arduino'
p332
ssS'build'
p333
(dp334
S'core'
p335
S'arduino'
p336
sS'mcu'
p337
S'atmega1280'
p338
sS'f_cpu'
p339
S'16000000L'
p340
sS'variant'
p341
S'mega'
p342
ssS'name'
p343
S'Arduino Mega (ATmega1280)'
p344
sg104
S'/usr/share/arduino/hardware/arduino'
p345
saa(lp346
S'leonardo'
p347
a(dp348
S'bootloader'
p349
(dp350
S'extended_fuses'
p351
S'0xcb'
p352
sS'high_fuses'
p353
S'0xd8'
p354
sS'low_fuses'
p355
S'0xff'
p356
sS'lock_bits'
p357
S'0x2F'
p358
sS'file'
p359
S'Caterina-Leonardo.hex'
p360
sS'path'
p361
S'caterina'
p362
sS'unlock_bits'
p363
S'0x3F'
p364
ssS'upload'
p365
(dp366
S'speed'
p367
S'57600'
p368
sS'maximum_size'
p369
S'28672'
p370
sS'protocol'
p371
S'avr109'
p372
sS'disable_flushing'
p373
S'true'
p374
ssS'build'
p375
(dp376
S'core'
p377
S'arduino'
p378
sS'f_cpu'
p379
S'16000000L'
p380
sS'vid'
p381
S'0x2341'
p382
sS'pid'
p383
S'0x8036'
p384
sS'variant'
p385
S'leonardo'
p386
sS'mcu'
p387
S'atmega32u4'
p388
ssS'name'
p389
S'Arduino Leonardo'
p390
sg104
S'/usr/share/arduino/hardware/arduino'
p391
saa(lp392
S'esplora'
p393
a(dp394
S'bootloader'
p395
(dp396
S'extended_fuses'
p397
S'0xcb'
p398
sS'high_fuses'
p399
S'0xd8'
p400
sS'low_fuses'
p401
S'0xff'
p402
sS'lock_bits'
p403
S'0x2F'
p404
sS'file'
p405
S'Caterina-Esplora.hex'
p406
sS'path'
p407
S'caterina'
p408
sS'unlock_bits'
p409
S'0x3F'
p410
ssS'upload'
p411
(dp412
S'speed'
p413
S'57600'
p414
sS'maximum_size'
p415
S'28672'
p416
sS'protocol'
p417
S'avr109'
p418
sS'disable_flushing'
p419
S'true'
p420
ssS'build'
p421
(dp422
S'core'
p423
S'arduino'
p424
sS'f_cpu'
p425
S'16000000L'
p426
sS'vid'
p427
S'0x2341'
p428
sS'pid'
p429
S'0x803C'
p430
sS'variant'
p431
S'leonardo'
p432
sS'mcu'
p433
S'atmega32u4'
p434
ssS'name'
p435
S'Arduino Esplora'
p436
sg104
S'/usr/share/arduino/hardware/arduino'
p437
saa(lp438
S'micro'
p439
a(dp440
S'bootloader'
p441
(dp442
S'extended_fuses'
p443
S'0xcb'
p444
sS'high_fuses'
p445
S'0xd8'
p446
sS'low_fuses'
p447
S'0xff'
p448
sS'lock_bits'
p449
S'0x2F'
p450
sS'file'
p451
S'Caterina-Micro.hex'
p452
sS'path'
p453
S'caterina'
p454
sS'unlock_bits'
p455
S'0x3F'
p456
ssS'upload'
p457
(dp458
S'speed'
p459
S'57600'
p460
sS'maximum_size'
p461
S'28672'
p462
sS'protocol'
p463
S'avr109'
p464
sS'disable_flushing'
p465
S'true'
p466
ssS'build'
p467
(dp468
S'core'
p469
S'arduino'
p470
sS'f_cpu'
p471
S'16000000L'
p472
sS'vid'
p473
S'0x2341'
p474
sS'pid'
p475
S'0x8037'
p476
sS'variant'
p477
S'micro'
p478
sS'mcu'
p479
S'atmega32u4'
p480
ssS'name'
p481
S'Arduino Micro'
p482
sg104
S'/usr/share/arduino/hardware/arduino'
p483
saa(lp484
S'mini328'
p485
a(dp486
S'bootloader'
p487
(dp488
S'extended_fuses'
p489
S'0x05'
p490
sS'high_fuses'
p491
S'0xd8'
p492
sS'low_fuses'
p493
S'0xff'
p494
sS'lock_bits'
p495
S'0x0F'
p496
sS'file'
p497
S'optiboot_atmega328-Mini.hex'
p498
sS'path'
p499
S'optiboot'
p500
sS'unlock_bits'
p501
S'0x3F'
p502
ssS'upload'
p503
(dp504
S'speed'
p505
S'115200'
p506
sS'maximum_size'
p507
S'28672'
p508
sS'protocol'
p509
S'arduino'
p510
ssS'build'
p511
(dp512
S'core'
p513
S'arduino'
p514
sS'mcu'
p515
S'atmega328p'
p516
sS'f_cpu'
p517
S'16000000L'
p518
sS'variant'
p519
S'eightanaloginputs'
p520
ssS'name'
p521
S'Arduino Mini w/ ATmega328'
p522
sg104
S'/usr/share/arduino/hardware/arduino'
p523
saa(lp524
S'mini'
p525
a(dp526
S'bootloader'
p527
(dp528
S'extended_fuses'
p529
S'0x00'
p530
sS'high_fuses'
p531
S'0xdd'
p532
sS'low_fuses'
p533
S'0xff'
p534
sS'lock_bits'
p535
S'0x0F'
p536
sS'file'
p537
S'ATmegaBOOT_168_ng.hex'
p538
sS'path'
p539
S'atmega'
p540
sS'unlock_bits'
p541
S'0x3F'
p542
ssS'upload'
p543
(dp544
S'speed'
p545
S'19200'
p546
sS'maximum_size'
p547
S'14336'
p548
sS'protocol'
p549
S'arduino'
p550
ssS'build'
p551
(dp552
S'core'
p553
S'arduino'
p554
sS'mcu'
p555
S'atmega168'
p556
sS'f_cpu'
p557
S'16000000L'
p558
sS'variant'
p559
S'eightanaloginputs'
p560
ssS'name'
p561
S'Arduino Mini w/ ATmega168'
p562
sg104
S'/usr/share/arduino/hardware/arduino'
p563
saa(lp564
S'ethernet'
p565
a(dp566
S'bootloader'
p567
(dp568
S'extended_fuses'
p569
S'0x05'
p570
sS'high_fuses'
p571
S'0xde'
p572
sS'low_fuses'
p573
S'0xff'
p574
sS'lock_bits'
p575
S'0x0F'
p576
sS'file'
p577
S'optiboot_atmega328.hex'
p578
sS'path'
p579
S'optiboot'
p580
sS'unlock_bits'
p581
S'0x3F'
p582
ssS'upload'
p583
(dp584
S'speed'
p585
S'115200'
p586
sS'maximum_size'
p587
S'32256'
p588
sS'protocol'
p589
S'arduino'
p590
ssS'build'
p591
(dp592
S'f_cpu'
p593
S'16000000L'
p594
sS'mcu'
p595
S'atmega328p'
p596
sS'variant'
p597
S'standard'
p598
sS'core'
p599
S'arduino'
p600
ssS'name'
p601
S'Arduino Ethernet'
p602
sg104
S'/usr/share/arduino/hardware/arduino'
p603
saa(lp604
S'fio'
p605
a(dp606
S'bootloader'
p607
(dp608
S'extended_fuses'
p609
S'0x05'
p610
sS'high_fuses'
p611
S'0xDA'
p612
sS'low_fuses'
p613
S'0xFF'
p614
sS'lock_bits'
p615
S'0x0F'
p616
sS'file'
p617
S'ATmegaBOOT_168_atmega328_pro_8MHz.hex'
p618
sS'path'
p619
S'arduino:atmega'
p620
sS'unlock_bits'
p621
S'0x3F'
p622
ssS'upload'
p623
(dp624
S'speed'
p625
S'57600'
p626
sS'maximum_size'
p627
S'30720'
p628
sS'protocol'
p629
S'arduino'
p630
ssS'build'
p631
(dp632
S'core'
p633
S'arduino'
p634
sS'mcu'
p635
S'atmega328p'
p636
sS'f_cpu'
p637
S'8000000L'
p638
sS'variant'
p639
S'eightanaloginputs'
p640
ssS'name'
p641
S'Arduino Fio'
p642
sg104
S'/usr/share/arduino/hardware/arduino'
p643
saa(lp644
S'bt328'
p645
a(dp646
S'bootloader'
p647
(dp648
S'extended_fuses'
p649
S'0x05'
p650
sS'high_fuses'
p651
S'0xd8'
p652
sS'low_fuses'
p653
S'0xff'
p654
sS'lock_bits'
p655
S'0x0F'
p656
sS'file'
p657
S'ATmegaBOOT_168_atmega328_bt.hex'
p658
sS'path'
p659
S'bt'
p660
sS'unlock_bits'
p661
S'0x3F'
p662
ssS'upload'
p663
(dp664
S'speed'
p665
S'19200'
p666
sS'maximum_size'
p667
S'28672'
p668
sS'protocol'
p669
S'arduino'
p670
sS'disable_flushing'
p671
S'true'
p672
ssS'build'
p673
(dp674
S'core'
p675
S'arduino'
p676
sS'mcu'
p677
S'atmega328p'
p678
sS'f_cpu'
p679
S'16000000L'
p680
sS'variant'
p681
S'eightanaloginputs'
p682
ssS'name'
p683
S'Arduino BT w/ ATmega328'
p684
sg104
S'/usr/share/arduino/hardware/arduino'
p685
saa(lp686
S'bt'
p687
a(dp688
S'bootloader'
p689
(dp690
S'extended_fuses'
p691
S'0x00'
p692
sS'high_fuses'
p693
S'0xdd'
p694
sS'low_fuses'
p695
S'0xff'
p696
sS'lock_bits'
p697
S'0x0F'
p698
sS'file'
p699
S'ATmegaBOOT_168.hex'
p700
sS'path'
p701
S'bt'
p702
sS'unlock_bits'
p703
S'0x3F'
p704
ssS'upload'
p705
(dp706
S'speed'
p707
S'19200'
p708
sS'maximum_size'
p709
S'14336'
p710
sS'protocol'
p711
S'arduino'
p712
sS'disable_flushing'
p713
S'true'
p714
ssS'build'
p715
(dp716
S'core'
p717
S'arduino'
p718
sS'mcu'
p719
S'atmega168'
p720
sS'f_cpu'
p721
S'16000000L'
p722
sS'variant'
p723
S'eightanaloginputs'
p724
ssS'name'
p725
S'Arduino BT w/ ATmega168'
p726
sg104
S'/usr/share/arduino/hardware/arduino'
p727
saa(lp728
S'LilyPadUSB'
p729
a(dp730
S'bootloader'
p731
(dp732
S'extended_fuses'
p733
S'0xce'
p734
sS'high_fuses'
p735
S'0xd8'
p736
sS'low_fuses'
p737
S'0xff'
p738
sS'lock_bits'
p739
S'0x2F'
p740
sS'file'
p741
S'Caterina-LilyPadUSB.hex'
p742
sS'path'
p743
S'caterina-LilyPadUSB'
p744
sS'unlock_bits'
p745
S'0x3F'
p746
ssS'upload'
p747
(dp748
S'speed'
p749
S'57600'
p750
sS'maximum_size'
p751
S'28672'
p752
sS'protocol'
p753
S'avr109'
p754
sS'disable_flushing'
p755
S'true'
p756
ssS'build'
p757
(dp758
S'core'
p759
S'arduino'
p760
sS'f_cpu'
p761
S'8000000L'
p762
sS'vid'
p763
S'0x1B4F'
p764
sS'pid'
p765
S'0x9208'
p766
sS'variant'
p767
S'leonardo'
p768
sS'mcu'
p769
S'atmega32u4'
p770
ssS'name'
p771
S'LilyPad Arduino USB'
p772
sg104
S'/usr/share/arduino/hardware/arduino'
p773
saa(lp774
S'lilypad328'
p775
a(dp776
S'bootloader'
p777
(dp778
S'extended_fuses'
p779
S'0x05'
p780
sS'high_fuses'
p781
S'0xDA'
p782
sS'low_fuses'
p783
S'0xFF'
p784
sS'lock_bits'
p785
S'0x0F'
p786
sS'file'
p787
S'ATmegaBOOT_168_atmega328_pro_8MHz.hex'
p788
sS'path'
p789
S'atmega'
p790
sS'unlock_bits'
p791
S'0x3F'
p792
ssS'upload'
p793
(dp794
S'speed'
p795
S'57600'
p796
sS'maximum_size'
p797
S'30720'
p798
sS'protocol'
p799
S'arduino'
p800
ssS'build'
p801
(dp802
S'core'
p803
S'arduino'
p804
sS'mcu'
p805
S'atmega328p'
p806
sS'f_cpu'
p807
S'8000000L'
p808
sS'variant'
p809
S'standard'
p810
ssS'name'
p811
S'LilyPad Arduino w/ ATmega328'
p812
sg104
S'/usr/share/arduino/hardware/arduino'
p813
saa(lp814
S'lilypad'
p815
a(dp816
S'bootloader'
p817
(dp818
S'extended_fuses'
p819
S'0x00'
p820
sS'high_fuses'
p821
S'0xdd'
p822
sS'low_fuses'
p823
S'0xe2'
p824
sS'lock_bits'
p825
S'0x0F'
p826
sS'file'
p827
S'LilyPadBOOT_168.hex'
p828
sS'path'
p829
S'lilypad'
p830
sS'unlock_bits'
p831
S'0x3F'
p832
ssS'upload'
p833
(dp834
S'speed'
p835
S'19200'
p836
sS'maximum_size'
p837
S'14336'
p838
sS'protocol'
p839
S'arduino'
p840
ssS'build'
p841
(dp842
S'core'
p843
S'arduino'
p844
sS'mcu'
p845
S'atmega168'
p846
sS'f_cpu'
p847
S'8000000L'
p848
sS'variant'
p849
S'standard'
p850
ssS'name'
p851
S'LilyPad Arduino w/ ATmega168'
p852
sg104
S'/usr/share/arduino/hardware/arduino'
p853
saa(lp854
S'pro5v328'
p855
a(dp856
S'bootloader'
p857
(dp858
S'extended_fuses'
p859
S'0x05'
p860
sS'high_fuses'
p861
S'0xDA'
p862
sS'low_fuses'
p863
S'0xFF'
p864
sS'lock_bits'
p865
S'0x0F'
p866
sS'file'
p867
S'ATmegaBOOT_168_atmega328.hex'
p868
sS'path'
p869
S'atmega'
p870
sS'unlock_bits'
p871
S'0x3F'
p872
ssS'upload'
p873
(dp874
S'speed'
p875
S'57600'
p876
sS'maximum_size'
p877
S'30720'
p878
sS'protocol'
p879
S'arduino'
p880
ssS'build'
p881
(dp882
S'core'
p883
S'arduino'
p884
sS'mcu'
p885
S'atmega328p'
p886
sS'f_cpu'
p887
S'16000000L'
p888
sS'variant'
p889
S'standard'
p890
ssS'name'
p891
S'Arduino Pro or Pro Mini (5V, 16 MHz) w/ ATmega328'
p892
sg104
S'/usr/share/arduino/hardware/arduino'
p893
saa(lp894
S'pro5v'
p895
a(dp896
S'bootloader'
p897
(dp898
S'extended_fuses'
p899
S'0x00'
p900
sS'high_fuses'
p901
S'0xdd'
p902
sS'low_fuses'
p903
S'0xff'
p904
sS'lock_bits'
p905
S'0x0F'
p906
sS'file'
p907
S'ATmegaBOOT_168_diecimila.hex'
p908
sS'path'
p909
S'atmega'
p910
sS'unlock_bits'
p911
S'0x3F'
p912
ssS'upload'
p913
(dp914
S'speed'
p915
S'19200'
p916
sS'maximum_size'
p917
S'14336'
p918
sS'protocol'
p919
S'arduino'
p920
ssS'build'
p921
(dp922
S'core'
p923
S'arduino'
p924
sS'mcu'
p925
S'atmega168'
p926
sS'f_cpu'
p927
S'16000000L'
p928
sS'variant'
p929
S'standard'
p930
ssS'name'
p931
S'Arduino Pro or Pro Mini (5V, 16 MHz) w/ ATmega168'
p932
sg104
S'/usr/share/arduino/hardware/arduino'
p933
saa(lp934
S'pro328'
p935
a(dp936
S'bootloader'
p937
(dp938
S'extended_fuses'
p939
S'0x05'
p940
sS'high_fuses'
p941
S'0xDA'
p942
sS'low_fuses'
p943
S'0xFF'
p944
sS'lock_bits'
p945
S'0x0F'
p946
sS'file'
p947
S'ATmegaBOOT_168_atmega328_pro_8MHz.hex'
p948
sS'path'
p949
S'atmega'
p950
sS'unlock_bits'
p951
S'0x3F'
p952
ssS'upload'
p953
(dp954
S'speed'
p955
S'57600'
p956
sS'maximum_size'
p957
S'30720'
p958
sS'protocol'
p959
S'arduino'
p960
ssS'build'
p961
(dp962
S'core'
p963
S'arduino'
p964
sS'mcu'
p965
S'atmega328p'
p966
sS'f_cpu'
p967
S'8000000L'
p968
sS'variant'
p969
S'standard'
p970
ssS'name'
p971
S'Arduino Pro or Pro Mini (3.3V, 8 MHz) w/ ATmega328'
p972
sg104
S'/usr/share/arduino/hardware/arduino'
p973
saa(lp974
S'pro'
p975
a(dp976
S'bootloader'
p977
(dp978
S'extended_fuses'
p979
S'0x00'
p980
sS'high_fuses'
p981
S'0xdd'
p982
sS'low_fuses'
p983
S'0xc6'
p984
sS'lock_bits'
p985
S'0x0F'
p986
sS'file'
p987
S'ATmegaBOOT_168_pro_8MHz.hex'
p988
sS'path'
p989
S'atmega'
p990
sS'unlock_bits'
p991
S'0x3F'
p992
ssS'upload'
p993
(dp994
S'speed'
p995
S'19200'
p996
sS'maximum_size'
p997
S'14336'
p998
sS'protocol'
p999
S'arduino'
p1000
ssS'build'
p1001
(dp1002
S'core'
p1003
S'arduino'
p1004
sS'mcu'
p1005
S'atmega168'
p1006
sS'f_cpu'
p1007
S'8000000L'
p1008
sS'variant'
p1009
S'standard'
p1010
ssS'name'
p1011
S'Arduino Pro or Pro Mini (3.3V, 8 MHz) w/ ATmega168'
p1012
sg104
S'/usr/share/arduino/hardware/arduino'
p1013
saa(lp1014
S'atmega168'
p1015
a(dp1016
S'bootloader'
p1017
(dp1018
S'extended_fuses'
p1019
S'0x00'
p1020
sS'high_fuses'
p1021
S'0xdd'
p1022
sS'low_fuses'
p1023
S'0xff'
p1024
sS'lock_bits'
p1025
S'0x0F'
p1026
sS'file'
p1027
S'ATmegaBOOT_168_ng.hex'
p1028
sS'path'
p1029
S'atmega'
p1030
sS'unlock_bits'
p1031
S'0x3F'
p1032
ssS'upload'
p1033
(dp1034
S'speed'
p1035
S'19200'
p1036
sS'maximum_size'
p1037
S'14336'
p1038
sS'protocol'
p1039
S'arduino'
p1040
ssS'build'
p1041
(dp1042
S'core'
p1043
S'arduino'
p1044
sS'mcu'
p1045
S'atmega168'
p1046
sS'f_cpu'
p1047
S'16000000L'
p1048
sS'variant'
p1049
S'standard'
p1050
ssS'name'
p1051
S'Arduino NG or older w/ ATmega168'
p1052
sg104
S'/usr/share/arduino/hardware/arduino'
p1053
saa(lp1054
S'atmega8'
p1055
a(dp1056
S'bootloader'
p1057
(dp1058
S'high_fuses'
p1059
S'0xca'
p1060
sS'low_fuses'
p1061
S'0xdf'
p1062
sS'lock_bits'
p1063
S'0x0F'
p1064
sS'file'
p1065
S'ATmegaBOOT-prod-firmware-2009-11-07.hex'
p1066
sS'path'
p1067
S'atmega8'
p1068
sS'unlock_bits'
p1069
S'0x3F'
p1070
ssS'upload'
p1071
(dp1072
S'speed'
p1073
S'19200'
p1074
sS'maximum_size'
p1075
S'7168'
p1076
sS'protocol'
p1077
S'arduino'
p1078
ssS'build'
p1079
(dp1080
S'core'
p1081
S'arduino'
p1082
sS'mcu'
p1083
S'atmega8'
p1084
sS'f_cpu'
p1085
S'16000000L'
p1086
sS'variant'
p1087
S'standard'
p1088
ssS'name'
p1089
S'Arduino NG or older w/ ATmega8'
p1090
sg104
S'/usr/share/arduino/hardware/arduino'
p1091
saa(lp1092
S'robotControl'
p1093
a(dp1094
S'bootloader'
p1095
(dp1096
S'extended_fuses'
p1097
S'0xcb'
p1098
sS'high_fuses'
p1099
S'0xd8'
p1100
sS'low_fuses'
p1101
S'0xff'
p1102
sS'lock_bits'
p1103
S'0x2F'
p1104
sS'file'
p1105
S'Caterina-Robot-Control.hex'
p1106
sS'path'
p1107
S'caterina-Arduino_Robot'
p1108
sS'unlock_bits'
p1109
S'0x3F'
p1110
ssS'upload'
p1111
(dp1112
S'speed'
p1113
S'57600'
p1114
sS'maximum_size'
p1115
S'28672'
p1116
sS'protocol'
p1117
S'avr109'
p1118
sS'disable_flushing'
p1119
S'true'
p1120
ssS'build'
p1121
(dp1122
S'core'
p1123
S'robot'
p1124
sS'f_cpu'
p1125
S'16000000L'
p1126
sS'vid'
p1127
S'0x2341'
p1128
sS'pid'
p1129
S'0x8038'
p1130
sS'variant'
p1131
S'robot_control'
p1132
sS'mcu'
p1133
S'atmega32u4'
p1134
ssS'name'
p1135
S'Arduino Robot Control'
p1136
sg104
S'/usr/share/arduino/hardware/arduino'
p1137
saa(lp1138
S'robotMotor'
p1139
a(dp1140
S'bootloader'
p1141
(dp1142
S'extended_fuses'
p1143
S'0xcb'
p1144
sS'high_fuses'
p1145
S'0xd8'
p1146
sS'low_fuses'
p1147
S'0xff'
p1148
sS'lock_bits'
p1149
S'0x2F'
p1150
sS'file'
p1151
S'Caterina-Robot-Motor.hex'
p1152
sS'path'
p1153
S'caterina-Arduino_Robot'
p1154
sS'unlock_bits'
p1155
S'0x3F'
p1156
ssS'upload'
p1157
(dp1158
S'speed'
p1159
S'57600'
p1160
sS'maximum_size'
p1161
S'28672'
p1162
sS'protocol'
p1163
S'avr109'
p1164
sS'disable_flushing'
p1165
S'true'
p1166
ssS'build'
p1167
(dp1168
S'core'
p1169
S'robot'
p1170
sS'f_cpu'
p1171
S'16000000L'
p1172
sS'vid'
p1173
S'0x2341'
p1174
sS'pid'
p1175
S'0x8039'
p1176
sS'variant'
p1177
S'robot_motor'
p1178
sS'mcu'
p1179
S'atmega32u4'
p1180
ssS'name'
p1181
S'Arduino Robot Motor'
p1182
sg104
S'/usr/share/arduino/hardware/arduino'
p1183
saatp1184
Rp1185
(dp1186
S'default'
p1187
S'uno'
p1188
sbtp1189
a(S'used_libs'
p1190
(lp1191
S'lib/jeelib'
p1192
aS'/usr/share/arduino/hardware/arduino/cores/arduino'
p1193
atp1194
a(S'make'
p1195
S'/usr/share/arduino/hardware/tools/avr/bin/make'
p1196
tp1197
a(S'arduino_libraries_dir'
p1198
S'/usr/share/arduino/libraries'
p1199
tp1200
a(S'cc'
p1201
S'/usr/share/arduino/hardware/tools/avr/bin/avr-gcc'
p1202
tp1203
a(S'cflags'
p1204
g2
(g3
g4
(lp1205
tp1206
Rp1207
tp1208
a(S'cxxflags'
p1209
g2
(g3
g4
(lp1210
S'-fno-exceptions'
p1211
atp1212
Rp1213
tp1214
a(S'arduino_variants_dir'
p1215
S'/usr/share/arduino/hardware/arduino/variants'
p1216
tp1217
a(S'serial'
p1218
S'/usr/bin/picocom'
p1219
tp1220
a(S'stty'
p1221
S'/bin/stty'
p1222
tp1223
a(S'version.txt'
p1224
S'/usr/share/arduino/lib/version.txt'
p1225
tp1226
a(S'arduino_core_dir'
p1227
g1193
tp1228
a(S'boards.txt'
p1229
(lp1230
S'/usr/share/arduino/hardware/arduino/boards.txt'
p1231
atp1232
a(S'avrdude.conf'
p1233
S'/usr/share/arduino/hardware/tools/avrdude.conf'
p1234
tp1235
a(S'deps'
p1236
g2
(g3
g4
(lp1237
S'.build/uno/src/dependencies.d'
p1238
aS'.build/uno/arduino/dependencies.d'
p1239
aS'.build/uno/jeelib/dependencies.d'
p1240
atp1241
Rp1242
tp1243
a.